; Function Attrs: nounwind uwtable
define hidden void @Wayland_DisplayCreateTextInputManager(ptr noundef captures(address) %0, i32 noundef %1) local_unnamed_addr #0 {
  %3 = tail call ptr @SDL_getenv_REAL(ptr noundef nonnull @.str.4) #12
  %.not = icmp eq ptr %3, null
  br i1 %.not, label %7, label %4

4:                                                ; preds = %2
  %5 = tail call i32 @SDL_strcmp_REAL(ptr noundef nonnull %3, ptr noundef nonnull @.str.5) #12
  %6 = icmp eq i32 %5, 0
  br i1 %6, label %.loopexit, label %7

7:                                                ; preds = %4, %2
  %8 = getelementptr inbounds nuw i8, ptr %0, i64 24
  %9 = load ptr, ptr %8, align 8
  %10 = load ptr, ptr @WAYLAND_wl_proxy_marshal_flags, align 8
  %11 = load ptr, ptr @zwp_text_input_manager_v3_interface, align 8
  %12 = tail call ptr (ptr, i32, ptr, i32, i32, ...) %10(ptr noundef %9, i32 noundef 0, ptr noundef nonnull @zwp_text_input_manager_v3_interface, i32 noundef 1, i32 noundef 0, i32 noundef %1, ptr noundef %11, i32 noundef 1, ptr noundef null) #12
  %13 = getelementptr inbounds nuw i8, ptr %0, i64 144
  store ptr %12, ptr %13, align 8
  %14 = getelementptr inbounds nuw i8, ptr %0, i64 248
  %15 = getelementptr inbounds nuw i8, ptr %0, i64 256
  %.pn12 = load ptr, ptr %15, align 8
  %.not1113 = icmp eq ptr %.pn12, %14
  br i1 %.not1113, label %.loopexit, label %.lr.ph

.lr.ph:                                           ; preds = %7, %Wayland_SeatCreateTextInput.exit
  %.pn14 = phi ptr [ %.pn, %Wayland_SeatCreateTextInput.exit ], [ %.pn12, %7 ]
  %.0 = getelementptr inbounds i8, ptr %.pn14, i64 -40
  %16 = load ptr, ptr %.0, align 8
  %17 = getelementptr inbounds nuw i8, ptr %16, i64 144
  %18 = load ptr, ptr %17, align 8
  %.not.i = icmp eq ptr %18, null
  br i1 %.not.i, label %Wayland_SeatCreateTextInput.exit, label %19

19:                                               ; preds = %.lr.ph
  %20 = getelementptr inbounds i8, ptr %.pn14, i64 -32
  %21 = load ptr, ptr %20, align 8
  %22 = load ptr, ptr @WAYLAND_wl_proxy_marshal_flags, align 8
  %23 = load ptr, ptr @WAYLAND_wl_proxy_get_version, align 8
  %24 = tail call i32 %23(ptr noundef nonnull %18) #12
  %25 = tail call ptr (ptr, i32, ptr, i32, i32, ...) %22(ptr noundef nonnull %18, i32 noundef 1, ptr noundef nonnull @zwp_text_input_v3_interface, i32 noundef %24, i32 noundef 0, ptr noundef null, ptr noundef %21) #12
  %26 = getelementptr inbounds nuw i8, ptr %.pn14, i64 448
  store ptr %25, ptr %26, align 8
  %.not10.i = icmp eq ptr %25, null
  br i1 %.not10.i, label %Wayland_SeatCreateTextInput.exit, label %27

27:                                               ; preds = %19
  %28 = load ptr, ptr @WAYLAND_wl_proxy_set_user_data, align 8
  tail call void %28(ptr noundef nonnull %25, ptr noundef nonnull %.0) #12
  %29 = load ptr, ptr %26, align 8
  %30 = load ptr, ptr @WAYLAND_wl_proxy_add_listener, align 8
  %31 = tail call i32 %30(ptr noundef %29, ptr noundef nonnull @text_input_listener, ptr noundef nonnull %.0) #12
  br label %Wayland_SeatCreateTextInput.exit

Wayland_SeatCreateTextInput.exit:                 ; preds = %.lr.ph, %19, %27
  %32 = getelementptr inbounds nuw i8, ptr %.pn14, i64 8
  %.pn = load ptr, ptr %32, align 8
  %.not11 = icmp eq ptr %.pn, %14
  br i1 %.not11, label %.loopexit, label %.lr.ph, !llvm.loop !14

.loopexit:                                        ; preds = %Wayland_SeatCreateTextInput.exit, %7, %4
  ret void
}